target datalayout = "e-m:e-p270:32:32-p271:32:32-p272:64:64-i64:64-i128:128-f80:128-n8:16:32:64-S128"
target triple = "x86_64-pc-linux-gnu"

%struct.pmix_class_t = type { ptr, ptr, ptr, ptr, i32, i32, ptr, ptr, i64 }
%struct.pmix_list_t = type { %struct.pmix_object_t, %struct.pmix_list_item_t, i64 }
%struct.pmix_object_t = type { %union.pthread_mutex_t, ptr, i32, %struct.pmix_tma }
%union.pthread_mutex_t = type { %struct.__pthread_mutex_s }
%struct.__pthread_mutex_s = type { i32, i32, i32, i32, i32, i16, i16, %struct.__pthread_internal_list }
%struct.__pthread_internal_list = type { ptr, ptr }
%struct.pmix_tma = type { ptr, ptr, ptr, ptr, ptr, ptr, ptr, ptr }
%struct.pmix_list_item_t = type { %struct.pmix_object_t, ptr, ptr, i32 }

@prte_job_states = external global %struct.pmix_list_t, align 8
@prte_proc_states = external global %struct.pmix_list_t, align 8
@.str.4 = private unnamed_addr constant [21 x i8] c"pthread_mutex_lock()\00", align 1

; Function Attrs: inlinehint nounwind uwtable
define internal void @pmix_tma_free(ptr noundef %0, ptr noundef %1) #3 {
  %3 = alloca ptr, align 8
  %4 = alloca ptr, align 8
  store ptr %0, ptr %3, align 8, !tbaa !36
  store ptr %1, ptr %4, align 8, !tbaa !19
  %5 = load ptr, ptr %3, align 8, !tbaa !36
  %6 = icmp ne ptr null, %5
  br i1 %6, label %7, label %13

7:                                                ; preds = %2
  %8 = load ptr, ptr %3, align 8, !tbaa !36
  %9 = getelementptr inbounds nuw %struct.pmix_tma, ptr %8, i32 0, i32 5
  %10 = load ptr, ptr %9, align 8, !tbaa !195
  %11 = load ptr, ptr %3, align 8, !tbaa !36
  %12 = load ptr, ptr %4, align 8, !tbaa !19
  call void %10(ptr noundef %11, ptr noundef %12)
  br label %15

13:                                               ; preds = %2
  %14 = load ptr, ptr %4, align 8, !tbaa !19
  call void @free(ptr noundef %14) #13
  br label %15

15:                                               ; preds = %13, %7
  ret void
}

; Function Attrs: inlinehint nounwind uwtable
define internal void @pmix_obj_run_destructors(ptr noundef %0) #3 {
  %2 = alloca ptr, align 8
  %3 = alloca ptr, align 8
  store ptr %0, ptr %2, align 8, !tbaa !31
  call void @llvm.lifetime.start.p0(i64 8, ptr %3) #13
  %4 = load ptr, ptr %2, align 8, !tbaa !31
  %5 = getelementptr inbounds nuw %struct.pmix_object_t, ptr %4, i32 0, i32 1
  %6 = load ptr, ptr %5, align 8, !tbaa !13
  %7 = getelementptr inbounds nuw %struct.pmix_class_t, ptr %6, i32 0, i32 7
  %8 = load ptr, ptr %7, align 8, !tbaa !193
  store ptr %8, ptr %3, align 8, !tbaa !19
  br label %9

9:                                                ; preds = %13, %1
  %10 = load ptr, ptr %3, align 8, !tbaa !19
  %11 = load ptr, ptr %10, align 8, !tbaa !19
  %12 = icmp ne ptr null, %11
  br i1 %12, label %13, label %19

13:                                               ; preds = %9
  %14 = load ptr, ptr %3, align 8, !tbaa !19
  %15 = load ptr, ptr %14, align 8, !tbaa !19
  %16 = load ptr, ptr %2, align 8, !tbaa !31
  call void %15(ptr noundef %16)
  %17 = load ptr, ptr %3, align 8, !tbaa !19
  %18 = getelementptr inbounds nuw ptr, ptr %17, i32 1
  store ptr %18, ptr %3, align 8, !tbaa !19
  br label %9, !llvm.loop !194

19:                                               ; preds = %9
  call void @llvm.lifetime.end.p0(i64 8, ptr %3) #13
  ret void
}

; Function Attrs: alwaysinline nounwind uwtable
define internal i32 @pmix_obj_update(ptr noundef %0, i32 noundef %1) #6 {
  %3 = alloca ptr, align 8
  %4 = alloca i32, align 4
  %5 = alloca i32, align 4
  store ptr %0, ptr %3, align 8, !tbaa !31
  store i32 %1, ptr %4, align 4, !tbaa !3
  call void @llvm.lifetime.start.p0(i64 4, ptr %5) #13
  %6 = load ptr, ptr %3, align 8, !tbaa !31
  %7 = getelementptr inbounds nuw %struct.pmix_object_t, ptr %6, i32 0, i32 0
  %8 = call i32 @pthread_mutex_lock(ptr noundef %7) #13
  store i32 %8, ptr %5, align 4, !tbaa !3
  %9 = load i32, ptr %5, align 4, !tbaa !3
  %10 = icmp eq i32 %9, 35
  br i1 %10, label %11, label %14

11:                                               ; preds = %2
  %12 = load i32, ptr %5, align 4, !tbaa !3
  %13 = call ptr @__errno_location() #15
  store i32 %12, ptr %13, align 4, !tbaa !3
  call void @perror(ptr noundef @.str.4)
  call void @abort() #16
  unreachable

14:                                               ; preds = %2
  %15 = load i32, ptr %4, align 4, !tbaa !3
  %16 = load ptr, ptr %3, align 8, !tbaa !31
  %17 = getelementptr inbounds nuw %struct.pmix_object_t, ptr %16, i32 0, i32 2
  %18 = load i32, ptr %17, align 8, !tbaa !16
  %19 = add nsw i32 %18, %15
  store i32 %19, ptr %17, align 8, !tbaa !16
  store i32 %19, ptr %5, align 4, !tbaa !3
  %20 = load ptr, ptr %3, align 8, !tbaa !31
  %21 = getelementptr inbounds nuw %struct.pmix_object_t, ptr %20, i32 0, i32 0
  %22 = call i32 @pthread_mutex_unlock(ptr noundef %21) #13
  %23 = load i32, ptr %5, align 4, !tbaa !3
  call void @llvm.lifetime.end.p0(i64 4, ptr %5) #13
  ret i32 %23
}

; Function Attrs: inlinehint nounwind uwtable
define internal ptr @pmix_list_remove_first(ptr noundef %0) #3 {
  %2 = alloca ptr, align 8
  %3 = alloca ptr, align 8
  %4 = alloca ptr, align 8
  %5 = alloca i32, align 4
  store ptr %0, ptr %3, align 8, !tbaa !197
  call void @llvm.lifetime.start.p0(i64 8, ptr %4) #13
  %6 = load ptr, ptr %3, align 8, !tbaa !197
  %7 = getelementptr inbounds nuw %struct.pmix_list_t, ptr %6, i32 0, i32 2
  %8 = load volatile i64, ptr %7, align 8, !tbaa !199
  %9 = icmp eq i64 0, %8
  br i1 %9, label %10, label %11

10:                                               ; preds = %1
  store ptr null, ptr %2, align 8
  store i32 1, ptr %5, align 4
  br label %34

11:                                               ; preds = %1
  %12 = load ptr, ptr %3, align 8, !tbaa !197
  %13 = getelementptr inbounds nuw %struct.pmix_list_t, ptr %12, i32 0, i32 2
  %14 = load volatile i64, ptr %13, align 8, !tbaa !199
  %15 = add i64 %14, -1
  store volatile i64 %15, ptr %13, align 8, !tbaa !199
  %16 = load ptr, ptr %3, align 8, !tbaa !197
  %17 = getelementptr inbounds nuw %struct.pmix_list_t, ptr %16, i32 0, i32 1
  %18 = getelementptr inbounds nuw %struct.pmix_list_item_t, ptr %17, i32 0, i32 1
  %19 = load ptr, ptr %18, align 8, !tbaa !208
  store ptr %19, ptr %4, align 8, !tbaa !30
  %20 = load ptr, ptr %4, align 8, !tbaa !30
  %21 = getelementptr inbounds nuw %struct.pmix_list_item_t, ptr %20, i32 0, i32 2
  %22 = load volatile ptr, ptr %21, align 8, !tbaa !209
  %23 = load ptr, ptr %4, align 8, !tbaa !30
  %24 = getelementptr inbounds nuw %struct.pmix_list_item_t, ptr %23, i32 0, i32 1
  %25 = load volatile ptr, ptr %24, align 8, !tbaa !188
  %26 = getelementptr inbounds nuw %struct.pmix_list_item_t, ptr %25, i32 0, i32 2
  store volatile ptr %22, ptr %26, align 8, !tbaa !209
  %27 = load ptr, ptr %4, align 8, !tbaa !30
  %28 = getelementptr inbounds nuw %struct.pmix_list_item_t, ptr %27, i32 0, i32 1
  %29 = load volatile ptr, ptr %28, align 8, !tbaa !188
  %30 = load ptr, ptr %3, align 8, !tbaa !197
  %31 = getelementptr inbounds nuw %struct.pmix_list_t, ptr %30, i32 0, i32 1
  %32 = getelementptr inbounds nuw %struct.pmix_list_item_t, ptr %31, i32 0, i32 1
  store ptr %29, ptr %32, align 8, !tbaa !208
  %33 = load ptr, ptr %4, align 8, !tbaa !30
  store ptr %33, ptr %2, align 8
  store i32 1, ptr %5, align 4
  br label %34

34:                                               ; preds = %11, %10
  call void @llvm.lifetime.end.p0(i64 8, ptr %4) #13
  %35 = load ptr, ptr %2, align 8
  ret ptr %35
}

; Function Attrs: nounwind uwtable
define internal i32 @finalize() #0 {
  %1 = alloca ptr, align 8
  %2 = alloca ptr, align 8
  %3 = alloca ptr, align 8
  %4 = alloca ptr, align 8
  br label %5

5:                                                ; preds = %0
  call void @llvm.lifetime.start.p0(i64 8, ptr %1) #13
  br label %6

6:                                                ; preds = %31, %5
  %7 = call ptr @pmix_list_remove_first(ptr noundef @prte_proc_states)
  store ptr %7, ptr %1, align 8, !tbaa !30
  %8 = icmp ne ptr null, %7
  br i1 %8, label %9, label %32

9:                                                ; preds = %6
  br label %10

10:                                               ; preds = %9
  call void @llvm.lifetime.start.p0(i64 8, ptr %2) #13
  %11 = load ptr, ptr %1, align 8, !tbaa !30
  store ptr %11, ptr %2, align 8, !tbaa !31
  %12 = load ptr, ptr %2, align 8, !tbaa !31
  %13 = call i32 @pmix_obj_update(ptr noundef %12, i32 noundef -1)
  %14 = icmp eq i32 0, %13
  br i1 %14, label %15, label %29

15:                                               ; preds = %10
  %16 = load ptr, ptr %2, align 8, !tbaa !31
  call void @pmix_obj_run_destructors(ptr noundef %16)
  %17 = load ptr, ptr %2, align 8, !tbaa !31
  %18 = getelementptr inbounds nuw %struct.pmix_object_t, ptr %17, i32 0, i32 3
  %19 = getelementptr inbounds nuw %struct.pmix_tma, ptr %18, i32 0, i32 5
  %20 = load ptr, ptr %19, align 8, !tbaa !33
  %21 = icmp ne ptr null, %20
  br i1 %21, label %22, label %26

22:                                               ; preds = %15
  %23 = load ptr, ptr %2, align 8, !tbaa !31
  %24 = getelementptr inbounds nuw %struct.pmix_object_t, ptr %23, i32 0, i32 3
  %25 = load ptr, ptr %1, align 8, !tbaa !30
  call void @pmix_tma_free(ptr noundef %24, ptr noundef %25)
  br label %28

26:                                               ; preds = %15
  %27 = load ptr, ptr %1, align 8, !tbaa !30
  call void @free(ptr noundef %27) #13
  br label %28

28:                                               ; preds = %26, %22
  store ptr null, ptr %1, align 8, !tbaa !30
  br label %29

29:                                               ; preds = %28, %10
  call void @llvm.lifetime.end.p0(i64 8, ptr %2) #13
  br label %30

30:                                               ; preds = %29
  br label %31

31:                                               ; preds = %30
  br label %6, !llvm.loop !34

32:                                               ; preds = %6
  br label %33

33:                                               ; preds = %32
  call void @pmix_obj_run_destructors(ptr noundef @prte_proc_states)
  br label %34

34:                                               ; preds = %33
  br label %35

35:                                               ; preds = %34
  call void @llvm.lifetime.end.p0(i64 8, ptr %1) #13
  br label %36

36:                                               ; preds = %35
  br label %37

37:                                               ; preds = %36
  call void @llvm.lifetime.start.p0(i64 8, ptr %3) #13
  br label %38

38:                                               ; preds = %63, %37
  %39 = call ptr @pmix_list_remove_first(ptr noundef @prte_job_states)
  store ptr %39, ptr %3, align 8, !tbaa !30
  %40 = icmp ne ptr null, %39
  br i1 %40, label %41, label %64

41:                                               ; preds = %38
  br label %42

42:                                               ; preds = %41
  call void @llvm.lifetime.start.p0(i64 8, ptr %4) #13
  %43 = load ptr, ptr %3, align 8, !tbaa !30
  store ptr %43, ptr %4, align 8, !tbaa !31
  %44 = load ptr, ptr %4, align 8, !tbaa !31
  %45 = call i32 @pmix_obj_update(ptr noundef %44, i32 noundef -1)
  %46 = icmp eq i32 0, %45
  br i1 %46, label %47, label %61

47:                                               ; preds = %42
  %48 = load ptr, ptr %4, align 8, !tbaa !31
  call void @pmix_obj_run_destructors(ptr noundef %48)
  %49 = load ptr, ptr %4, align 8, !tbaa !31
  %50 = getelementptr inbounds nuw %struct.pmix_object_t, ptr %49, i32 0, i32 3
  %51 = getelementptr inbounds nuw %struct.pmix_tma, ptr %50, i32 0, i32 5
  %52 = load ptr, ptr %51, align 8, !tbaa !33
  %53 = icmp ne ptr null, %52
  br i1 %53, label %54, label %58

54:                                               ; preds = %47
  %55 = load ptr, ptr %4, align 8, !tbaa !31
  %56 = getelementptr inbounds nuw %struct.pmix_object_t, ptr %55, i32 0, i32 3
  %57 = load ptr, ptr %3, align 8, !tbaa !30
  call void @pmix_tma_free(ptr noundef %56, ptr noundef %57)
  br label %60

58:                                               ; preds = %47
  %59 = load ptr, ptr %3, align 8, !tbaa !30
  call void @free(ptr noundef %59) #13
  br label %60

60:                                               ; preds = %58, %54
  store ptr null, ptr %3, align 8, !tbaa !30
  br label %61

61:                                               ; preds = %60, %42
  call void @llvm.lifetime.end.p0(i64 8, ptr %4) #13
  br label %62

62:                                               ; preds = %61
  br label %63

63:                                               ; preds = %62
  br label %38, !llvm.loop !35

64:                                               ; preds = %38
  br label %65

65:                                               ; preds = %64
  call void @pmix_obj_run_destructors(ptr noundef @prte_job_states)
  br label %66

66:                                               ; preds = %65
  br label %67

67:                                               ; preds = %66
  call void @llvm.lifetime.end.p0(i64 8, ptr %3) #13
  br label %68

68:                                               ; preds = %67
  ret i32 0
}